; Function Attrs: mustprogress uwtable
define noundef ptr @CreateLSTMData_75(ptr noundef %rb, ptr noundef nonnull align 4 dereferenceable(4) %status) local_unnamed_addr #1 personality ptr @__gxx_personality_v0 {
entry:
  %call = tail call noundef ptr @_ZN6icu_757UMemorynwEm(i64 noundef 248) #20
  %new.isnull = icmp eq ptr %call, null
  br i1 %new.isnull, label %new.cont, label %new.notnull

new.notnull:                                      ; preds = %entry
  invoke void @_ZN6icu_758LSTMDataC1EP15UResourceBundleR10UErrorCode(ptr noundef nonnull align 8 dereferenceable(248) %call, ptr noundef %rb, ptr noundef nonnull align 4 dereferenceable(4) %status)
          to label %new.cont unwind label %lpad

new.cont:                                         ; preds = %new.notnull, %entry
  ret ptr %call

lpad:                                             ; preds = %new.notnull
  %0 = landingpad { ptr, i32 }
          cleanup
  tail call void @_ZN6icu_757UMemorydlEPv(ptr noundef nonnull %call) #20
  resume { ptr, i32 } %0
}